; Function Attrs: nounwind sspstrong uwtable
define internal range(i32 0, 2) i32 @asciicompat_encoding_i(i64 %0, i64 noundef %1, i64 noundef %2) #0 {
  %4 = inttoptr i64 %2 to ptr
  %5 = inttoptr i64 %1 to ptr
  %6 = load ptr, ptr %5, align 8, !tbaa !23
  %7 = load i8, ptr %6, align 1, !tbaa !27
  %8 = icmp eq i8 %7, 0
  br i1 %8, label %load_transcoder_entry.exit.thread, label %9

9:                                                ; preds = %3
  %10 = getelementptr inbounds nuw i8, ptr %5, i64 24
  %11 = load ptr, ptr %10, align 8, !tbaa !19
  %.not.i = icmp eq ptr %11, null
  br i1 %.not.i, label %12, label %load_transcoder_entry.exit.thread11

12:                                               ; preds = %9
  %13 = getelementptr inbounds nuw i8, ptr %5, i64 16
  %14 = load ptr, ptr %13, align 8, !tbaa !25
  %.not22.i = icmp eq ptr %14, null
  br i1 %.not22.i, label %load_transcoder_entry.exit.thread, label %15

15:                                               ; preds = %12
  %16 = tail call i64 @strlen(ptr noundef nonnull dereferenceable(1) %14) #25
  %17 = add i64 %16, 10
  %18 = tail call i64 @rb_str_new(ptr noundef null, i64 noundef %17) #22, !callees !32
  %19 = inttoptr i64 %18 to ptr
  %20 = load i64, ptr %19, align 8, !tbaa !33, !noalias !110
  %21 = and i64 %20, 8192
  %.not.i.i.i = icmp eq i64 %21, 0
  %22 = getelementptr inbounds nuw i8, ptr %19, i64 24
  br i1 %.not.i.i.i, label %RSTRING_PTR.exit.i, label %23

23:                                               ; preds = %15
  %.sroa.2.0.copyload.i.i = load ptr, ptr %22, align 8
  br label %RSTRING_PTR.exit.i

RSTRING_PTR.exit.i:                               ; preds = %23, %15
  %.sroa.2.0.i.i = phi ptr [ %.sroa.2.0.copyload.i.i, %23 ], [ %22, %15 ]
  tail call void @llvm.memcpy.p0.p0.i64(ptr noundef nonnull align 1 dereferenceable(10) %.sroa.2.0.i.i, ptr noundef nonnull align 1 dereferenceable(10) @transcoder_lib_prefix, i64 noundef range(i64 1, 0) 10, i1 noundef false) #22
  %.not.i.i = icmp eq i64 %16, 0
  br i1 %.not.i.i, label %load_transcoder_entry.exit, label %24

24:                                               ; preds = %RSTRING_PTR.exit.i
  %25 = getelementptr i8, ptr %.sroa.2.0.i.i, i64 10
  tail call void @llvm.memcpy.p0.p0.i64(ptr noundef nonnull align 1 %25, ptr noundef nonnull readonly align 1 %14, i64 noundef range(i64 1, 0) %16, i1 noundef false) #22
  br label %load_transcoder_entry.exit

load_transcoder_entry.exit:                       ; preds = %RSTRING_PTR.exit.i, %24
  tail call void @rb_str_set_len(i64 noundef %18, i64 noundef %17) #22
  tail call void @rb_obj_freeze_inline(i64 noundef %18) #22
  %26 = tail call i32 @rb_require_internal_silent(i64 noundef %18) #22
  %.pre.i = load ptr, ptr %10, align 8, !tbaa !19
  %.not = icmp eq ptr %.pre.i, null
  br i1 %.not, label %load_transcoder_entry.exit.thread, label %load_transcoder_entry.exit.thread11

load_transcoder_entry.exit.thread11:              ; preds = %9, %load_transcoder_entry.exit
  %.0.i14 = phi ptr [ %.pre.i, %load_transcoder_entry.exit ], [ %11, %9 ]
  %27 = getelementptr inbounds nuw i8, ptr %.0.i14, i64 68
  %28 = load i32, ptr %27, align 4, !tbaa !67
  %29 = icmp eq i32 %28, 1
  br i1 %29, label %30, label %load_transcoder_entry.exit.thread

30:                                               ; preds = %load_transcoder_entry.exit.thread11
  %31 = getelementptr inbounds nuw i8, ptr %.0.i14, i64 8
  %32 = load ptr, ptr %31, align 8, !tbaa !18
  store ptr %32, ptr %4, align 8, !tbaa !109
  br label %load_transcoder_entry.exit.thread

load_transcoder_entry.exit.thread:                ; preds = %12, %load_transcoder_entry.exit, %load_transcoder_entry.exit.thread11, %3, %30
  %.0 = phi i32 [ 1, %30 ], [ 0, %3 ], [ 0, %load_transcoder_entry.exit.thread11 ], [ 0, %load_transcoder_entry.exit ], [ 0, %12 ]
  ret i32 %.0
}